target datalayout = "e-m:e-p270:32:32-p271:32:32-p272:64:64-i64:64-i128:128-f80:128-n8:16:32:64-S128"
target triple = "x86_64-pc-linux-gnu"

%struct._zval_struct = type { %union._zend_value, %union.anon, %union.anon.2 }
%union._zend_value = type { i64 }
%union.anon = type { i32 }
%union.anon.2 = type { i32 }
%struct._zend_array = type { %struct._zend_refcounted_h, %union.anon.4, i32, %union.anon.6, i32, i32, i32, i32, i64, ptr }
%struct._zend_refcounted_h = type { i32, %union.anon.3 }
%union.anon.3 = type { i32 }
%union.anon.4 = type { i32 }
%union.anon.6 = type { ptr }
%struct._spl_fixedarray_object = type { %struct._spl_fixedarray, ptr, %struct._zend_object }
%struct._spl_fixedarray = type { i64, ptr, i64 }
%struct._zend_object = type { %struct._zend_refcounted_h, i32, ptr, ptr, ptr, [1 x %struct._zval_struct] }
%struct.anon.0 = type { i8, i8, %union.anon.1 }
%union.anon.1 = type { i16 }
%struct._Bucket = type { %struct._zval_struct, i64, ptr }
%struct._zend_class_entry = type { i8, ptr, %union.anon.8, i32, i32, i32, i32, ptr, ptr, ptr, %struct._zend_array, %struct._zend_array, %struct._zend_array, ptr, ptr, ptr, ptr, ptr, ptr, ptr, ptr, ptr, ptr, ptr, ptr, ptr, ptr, ptr, ptr, ptr, ptr, ptr, %union.anon.9, ptr, ptr, ptr, ptr, i32, i32, %union.anon.10, ptr, ptr, ptr, ptr, i32, ptr, ptr, %union.anon.11 }
%union.anon.8 = type { ptr }
%union.anon.9 = type { ptr }
%union.anon.10 = type { ptr }
%union.anon.11 = type { %struct.anon.12 }
%struct.anon.12 = type { ptr, i32, i32 }

; Function Attrs: nounwind uwtable
define internal ptr @spl_fixed_array_from_obj(ptr noundef %0) #0 {
  %2 = alloca ptr, align 8
  store ptr %0, ptr %2, align 8
  %3 = load ptr, ptr %2, align 8
  %4 = getelementptr inbounds i8, ptr %3, i64 -32
  ret ptr %4
}

; Function Attrs: nounwind uwtable
define internal ptr @spl_fixedarray_object_get_properties_for(ptr noundef %0, i32 noundef %1) #0 {
  %3 = alloca ptr, align 8
  %4 = alloca ptr, align 8
  %5 = alloca ptr, align 8
  %6 = alloca ptr, align 8
  %7 = alloca ptr, align 8
  %8 = alloca ptr, align 8
  %9 = alloca ptr, align 8
  %10 = alloca ptr, align 8
  %11 = alloca ptr, align 8
  %12 = alloca ptr, align 8
  %13 = alloca i32, align 4
  %14 = alloca ptr, align 8
  %15 = alloca ptr, align 8
  %16 = alloca i64, align 8
  %17 = alloca ptr, align 8
  %18 = alloca ptr, align 8
  %19 = alloca i64, align 8
  %20 = alloca i64, align 8
  %21 = alloca ptr, align 8
  %22 = alloca ptr, align 8
  %23 = alloca ptr, align 8
  %24 = alloca ptr, align 8
  %25 = alloca ptr, align 8
  %26 = alloca ptr, align 8
  store ptr %0, ptr %12, align 8
  store i32 %1, ptr %13, align 4
  %27 = load i32, ptr %13, align 4
  %28 = icmp ne i32 %27, 2
  call void @llvm.assume(i1 %28)
  %29 = load ptr, ptr %12, align 8
  %30 = call ptr @spl_fixed_array_from_obj(ptr noundef %29)
  store ptr %30, ptr %14, align 8
  %31 = load ptr, ptr %12, align 8
  %32 = getelementptr inbounds %struct._zend_object, ptr %31, i32 0, i32 4
  %33 = load ptr, ptr %32, align 8
  %34 = icmp ne ptr %33, null
  br i1 %34, label %35, label %39

35:                                               ; preds = %2
  %36 = load ptr, ptr %12, align 8
  %37 = getelementptr inbounds %struct._zend_object, ptr %36, i32 0, i32 4
  %38 = load ptr, ptr %37, align 8
  br label %52

39:                                               ; preds = %2
  %40 = load ptr, ptr %12, align 8
  %41 = getelementptr inbounds %struct._zend_object, ptr %40, i32 0, i32 2
  %42 = load ptr, ptr %41, align 8
  %43 = getelementptr inbounds %struct._zend_class_entry, ptr %42, i32 0, i32 5
  %44 = load i32, ptr %43, align 8
  %45 = icmp ne i32 %44, 0
  br i1 %45, label %46, label %49

46:                                               ; preds = %39
  %47 = load ptr, ptr %12, align 8
  %48 = call ptr @zend_std_get_properties(ptr noundef %47)
  br label %50

49:                                               ; preds = %39
  br label %50

50:                                               ; preds = %49, %46
  %51 = phi ptr [ %48, %46 ], [ null, %49 ]
  br label %52

52:                                               ; preds = %50, %35
  %53 = phi ptr [ %38, %35 ], [ %51, %50 ]
  store ptr %53, ptr %15, align 8
  %54 = load ptr, ptr %14, align 8
  %55 = getelementptr inbounds %struct._spl_fixedarray_object, ptr %54, i32 0, i32 0
  %56 = getelementptr inbounds %struct._spl_fixedarray, ptr %55, i32 0, i32 0
  %57 = load i64, ptr %56, align 8
  store i64 %57, ptr %16, align 8
  %58 = load i64, ptr %16, align 8
  %59 = icmp eq i64 %58, 0
  br i1 %59, label %60, label %70

60:                                               ; preds = %52
  %61 = load ptr, ptr %15, align 8
  %62 = icmp ne ptr %61, null
  br i1 %62, label %63, label %69

63:                                               ; preds = %60
  %64 = load ptr, ptr %15, align 8
  store ptr %64, ptr %9, align 8
  %65 = load ptr, ptr %9, align 8
  %66 = getelementptr inbounds %struct._zend_array, ptr %65, i32 0, i32 5
  %67 = load i32, ptr %66, align 4
  %68 = icmp ne i32 %67, 0
  br i1 %68, label %70, label %69

69:                                               ; preds = %63, %60
  store ptr null, ptr %11, align 8
  br label %244

70:                                               ; preds = %63, %52
  %71 = load ptr, ptr %14, align 8
  %72 = getelementptr inbounds %struct._spl_fixedarray_object, ptr %71, i32 0, i32 0
  %73 = getelementptr inbounds %struct._spl_fixedarray, ptr %72, i32 0, i32 1
  %74 = load ptr, ptr %73, align 8
  store ptr %74, ptr %17, align 8
  %75 = load i64, ptr %16, align 8
  %76 = call i1 @llvm.is.constant.i64(i64 %75)
  br i1 %76, label %77, label %89

77:                                               ; preds = %70
  %78 = load i64, ptr %16, align 8
  %79 = trunc i64 %78 to i32
  %80 = icmp ule i32 %79, 8
  br i1 %80, label %81, label %83

81:                                               ; preds = %77
  %82 = call ptr @_zend_new_array_0()
  br label %87

83:                                               ; preds = %77
  %84 = load i64, ptr %16, align 8
  %85 = trunc i64 %84 to i32
  %86 = call ptr @_zend_new_array(i32 noundef %85)
  br label %87

87:                                               ; preds = %83, %81
  %88 = phi ptr [ %82, %81 ], [ %86, %83 ]
  br label %93

89:                                               ; preds = %70
  %90 = load i64, ptr %16, align 8
  %91 = trunc i64 %90 to i32
  %92 = call ptr @_zend_new_array(i32 noundef %91)
  br label %93

93:                                               ; preds = %89, %87
  %94 = phi ptr [ %88, %87 ], [ %92, %89 ]
  store ptr %94, ptr %18, align 8
  store i64 0, ptr %19, align 8
  br label %95

95:                                               ; preds = %131, %93
  %96 = load i64, ptr %19, align 8
  %97 = load i64, ptr %16, align 8
  %98 = icmp slt i64 %96, %97
  br i1 %98, label %99, label %134

99:                                               ; preds = %95
  br label %100

100:                                              ; preds = %99
  %101 = load ptr, ptr %17, align 8
  %102 = load i64, ptr %19, align 8
  %103 = getelementptr inbounds %struct._zval_struct, ptr %101, i64 %102
  %104 = getelementptr inbounds %struct._zval_struct, ptr %103, i32 0, i32 1
  %105 = getelementptr inbounds %struct.anon.0, ptr %104, i32 0, i32 1
  %106 = load i8, ptr %105, align 1
  %107 = zext i8 %106 to i32
  %108 = icmp ne i32 %107, 0
  br i1 %108, label %109, label %124

109:                                              ; preds = %100
  %110 = load ptr, ptr %17, align 8
  %111 = load i64, ptr %19, align 8
  %112 = getelementptr inbounds %struct._zval_struct, ptr %110, i64 %111
  store ptr %112, ptr %4, align 8
  %113 = load ptr, ptr %4, align 8
  %114 = getelementptr inbounds %struct._zval_struct, ptr %113, i32 0, i32 1
  %115 = getelementptr inbounds %struct.anon.0, ptr %114, i32 0, i32 1
  %116 = load i8, ptr %115, align 1
  %117 = zext i8 %116 to i32
  %118 = icmp ne i32 %117, 0
  call void @llvm.assume(i1 %118)
  %119 = load ptr, ptr %4, align 8
  %120 = load ptr, ptr %119, align 8
  store ptr %120, ptr %3, align 8
  %121 = load ptr, ptr %3, align 8
  %122 = load i32, ptr %121, align 4
  %123 = add i32 %122, 1
  store i32 %123, ptr %121, align 4
  br label %124

124:                                              ; preds = %109, %100
  br label %125

125:                                              ; preds = %124
  %126 = load ptr, ptr %18, align 8
  %127 = load ptr, ptr %17, align 8
  %128 = load i64, ptr %19, align 8
  %129 = getelementptr inbounds %struct._zval_struct, ptr %127, i64 %128
  %130 = call ptr @zend_hash_next_index_insert(ptr noundef %126, ptr noundef %129)
  br label %131

131:                                              ; preds = %125
  %132 = load i64, ptr %19, align 8
  %133 = add nsw i64 %132, 1
  store i64 %133, ptr %19, align 8
  br label %95

134:                                              ; preds = %95
  %135 = load ptr, ptr %15, align 8
  %136 = icmp ne ptr %135, null
  br i1 %136, label %137, label %242

137:                                              ; preds = %134
  %138 = load ptr, ptr %15, align 8
  store ptr %138, ptr %10, align 8
  %139 = load ptr, ptr %10, align 8
  %140 = getelementptr inbounds %struct._zend_array, ptr %139, i32 0, i32 5
  %141 = load i32, ptr %140, align 4
  %142 = icmp ugt i32 %141, 0
  br i1 %142, label %143, label %242

143:                                              ; preds = %137
  br label %144

144:                                              ; preds = %143
  %145 = load ptr, ptr %15, align 8
  store ptr %145, ptr %23, align 8
  %146 = load ptr, ptr %23, align 8
  %147 = getelementptr inbounds %struct._zend_array, ptr %146, i32 0, i32 3
  %148 = load ptr, ptr %147, align 8
  %149 = getelementptr inbounds %struct._Bucket, ptr %148, i64 0
  store ptr %149, ptr %24, align 8
  %150 = load ptr, ptr %23, align 8
  %151 = getelementptr inbounds %struct._zend_array, ptr %150, i32 0, i32 3
  %152 = load ptr, ptr %151, align 8
  %153 = load ptr, ptr %23, align 8
  %154 = getelementptr inbounds %struct._zend_array, ptr %153, i32 0, i32 4
  %155 = load i32, ptr %154, align 8
  %156 = zext i32 %155 to i64
  %157 = getelementptr inbounds %struct._Bucket, ptr %152, i64 %156
  store ptr %157, ptr %25, align 8
  %158 = load ptr, ptr %23, align 8
  %159 = getelementptr inbounds %struct._zend_array, ptr %158, i32 0, i32 1
  %160 = load i32, ptr %159, align 8
  %161 = and i32 %160, 4
  %162 = icmp ne i32 %161, 0
  %163 = xor i1 %162, true
  call void @llvm.assume(i1 %163)
  br label %164

164:                                              ; preds = %237, %144
  %165 = load ptr, ptr %24, align 8
  %166 = load ptr, ptr %25, align 8
  %167 = icmp ne ptr %165, %166
  br i1 %167, label %168, label %240

168:                                              ; preds = %164
  %169 = load ptr, ptr %24, align 8
  %170 = getelementptr inbounds %struct._Bucket, ptr %169, i32 0, i32 0
  store ptr %170, ptr %26, align 8
  %171 = load ptr, ptr %26, align 8
  store ptr %171, ptr %7, align 8
  %172 = load ptr, ptr %7, align 8
  %173 = getelementptr inbounds %struct._zval_struct, ptr %172, i32 0, i32 1
  %174 = load i8, ptr %173, align 8
  %175 = zext i8 %174 to i32
  %176 = icmp eq i32 %175, 12
  br i1 %176, label %177, label %181

177:                                              ; preds = %168
  %178 = load ptr, ptr %26, align 8
  %179 = getelementptr inbounds %struct._zval_struct, ptr %178, i32 0, i32 0
  %180 = load ptr, ptr %179, align 8
  store ptr %180, ptr %26, align 8
  br label %181

181:                                              ; preds = %177, %168
  %182 = load ptr, ptr %26, align 8
  store ptr %182, ptr %8, align 8
  %183 = load ptr, ptr %8, align 8
  %184 = getelementptr inbounds %struct._zval_struct, ptr %183, i32 0, i32 1
  %185 = load i8, ptr %184, align 8
  %186 = zext i8 %185 to i32
  %187 = icmp eq i32 %186, 0
  %188 = xor i1 %187, true
  %189 = xor i1 %188, true
  %190 = zext i1 %189 to i32
  %191 = sext i32 %190 to i64
  %192 = icmp ne i64 %191, 0
  br i1 %192, label %193, label %194

193:                                              ; preds = %181
  br label %237

194:                                              ; preds = %181
  %195 = load ptr, ptr %24, align 8
  %196 = getelementptr inbounds %struct._Bucket, ptr %195, i32 0, i32 1
  %197 = load i64, ptr %196, align 8
  store i64 %197, ptr %20, align 8
  %198 = load ptr, ptr %24, align 8
  %199 = getelementptr inbounds %struct._Bucket, ptr %198, i32 0, i32 2
  %200 = load ptr, ptr %199, align 8
  store ptr %200, ptr %21, align 8
  %201 = load ptr, ptr %26, align 8
  store ptr %201, ptr %22, align 8
  br label %202

202:                                              ; preds = %194
  %203 = load ptr, ptr %22, align 8
  %204 = getelementptr inbounds %struct._zval_struct, ptr %203, i32 0, i32 1
  %205 = getelementptr inbounds %struct.anon.0, ptr %204, i32 0, i32 1
  %206 = load i8, ptr %205, align 1
  %207 = zext i8 %206 to i32
  %208 = icmp ne i32 %207, 0
  br i1 %208, label %209, label %222

209:                                              ; preds = %202
  %210 = load ptr, ptr %22, align 8
  store ptr %210, ptr %6, align 8
  %211 = load ptr, ptr %6, align 8
  %212 = getelementptr inbounds %struct._zval_struct, ptr %211, i32 0, i32 1
  %213 = getelementptr inbounds %struct.anon.0, ptr %212, i32 0, i32 1
  %214 = load i8, ptr %213, align 1
  %215 = zext i8 %214 to i32
  %216 = icmp ne i32 %215, 0
  call void @llvm.assume(i1 %216)
  %217 = load ptr, ptr %6, align 8
  %218 = load ptr, ptr %217, align 8
  store ptr %218, ptr %5, align 8
  %219 = load ptr, ptr %5, align 8
  %220 = load i32, ptr %219, align 4
  %221 = add i32 %220, 1
  store i32 %221, ptr %219, align 4
  br label %222

222:                                              ; preds = %209, %202
  br label %223

223:                                              ; preds = %222
  %224 = load ptr, ptr %21, align 8
  %225 = icmp ne ptr %224, null
  br i1 %225, label %226, label %231

226:                                              ; preds = %223
  %227 = load ptr, ptr %18, align 8
  %228 = load ptr, ptr %21, align 8
  %229 = load ptr, ptr %22, align 8
  %230 = call ptr @zend_hash_add_new(ptr noundef %227, ptr noundef %228, ptr noundef %229)
  br label %236

231:                                              ; preds = %223
  %232 = load ptr, ptr %18, align 8
  %233 = load i64, ptr %20, align 8
  %234 = load ptr, ptr %22, align 8
  %235 = call ptr @zend_hash_index_update(ptr noundef %232, i64 noundef %233, ptr noundef %234)
  br label %236

236:                                              ; preds = %231, %226
  br label %237

237:                                              ; preds = %236, %193
  %238 = load ptr, ptr %24, align 8
  %239 = getelementptr inbounds %struct._Bucket, ptr %238, i32 1
  store ptr %239, ptr %24, align 8
  br label %164

240:                                              ; preds = %164
  br label %241

241:                                              ; preds = %240
  br label %242

242:                                              ; preds = %241, %137, %134
  %243 = load ptr, ptr %18, align 8
  store ptr %243, ptr %11, align 8
  br label %244

244:                                              ; preds = %242, %69
  %245 = load ptr, ptr %11, align 8
  ret ptr %245
}