; Function Attrs: nounwind uwtable
define internal ptr @spl_fixedarray_object_get_properties_for(ptr noundef %0, i32 noundef %1) #0 {
  %3 = icmp ne i32 %1, 2
  tail call void @llvm.assume(i1 %3)
  %4 = getelementptr inbounds i8, ptr %0, i64 -32
  %5 = getelementptr inbounds i8, ptr %0, i64 32
  %6 = load ptr, ptr %5, align 8
  %.not = icmp eq ptr %6, null
  br i1 %.not, label %7, label %14

7:                                                ; preds = %2
  %8 = getelementptr inbounds i8, ptr %0, i64 16
  %9 = load ptr, ptr %8, align 8
  %10 = getelementptr inbounds i8, ptr %9, i64 32
  %11 = load i32, ptr %10, align 8
  %.not69 = icmp eq i32 %11, 0
  br i1 %.not69, label %.thread, label %12

12:                                               ; preds = %7
  %13 = tail call ptr @zend_std_get_properties(ptr noundef nonnull %0) #12
  br label %14

14:                                               ; preds = %2, %12
  %15 = phi ptr [ %13, %12 ], [ %6, %2 ]
  %16 = load i64, ptr %4, align 8
  %17 = icmp eq i64 %16, 0
  br i1 %17, label %20, label %24

.thread:                                          ; preds = %7
  %18 = load i64, ptr %4, align 8
  %19 = icmp eq i64 %18, 0
  br i1 %19, label %.thread79, label %24

20:                                               ; preds = %14
  %.not70 = icmp eq ptr %15, null
  br i1 %.not70, label %.thread79, label %21

21:                                               ; preds = %20
  %22 = getelementptr inbounds i8, ptr %15, i64 28
  %23 = load i32, ptr %22, align 4
  %.not71 = icmp eq i32 %23, 0
  br i1 %.not71, label %.thread79, label %24

24:                                               ; preds = %.thread, %21, %14
  %25 = phi i64 [ %18, %.thread ], [ 0, %21 ], [ %16, %14 ]
  %26 = phi ptr [ null, %.thread ], [ %15, %21 ], [ %15, %14 ]
  %27 = getelementptr inbounds i8, ptr %0, i64 -24
  %28 = load ptr, ptr %27, align 8
  %29 = trunc i64 %25 to i32
  %30 = tail call ptr @_zend_new_array(i32 noundef %29) #12
  %31 = icmp sgt i64 %25, 0
  br i1 %31, label %.lr.ph, label %._crit_edge

.lr.ph:                                           ; preds = %24, %39
  %.06481 = phi i64 [ %41, %39 ], [ 0, %24 ]
  %32 = getelementptr inbounds %struct._zval_struct, ptr %28, i64 %.06481
  %33 = getelementptr inbounds i8, ptr %32, i64 9
  %34 = load i8, ptr %33, align 1
  %.not78 = icmp eq i8 %34, 0
  br i1 %.not78, label %39, label %35

35:                                               ; preds = %.lr.ph
  %36 = load ptr, ptr %32, align 8
  %37 = load i32, ptr %36, align 4
  %38 = add i32 %37, 1
  store i32 %38, ptr %36, align 4
  br label %39

39:                                               ; preds = %.lr.ph, %35
  %40 = tail call ptr @zend_hash_next_index_insert(ptr noundef %30, ptr noundef nonnull %32) #12
  %41 = add nuw nsw i64 %.06481, 1
  %exitcond.not = icmp eq i64 %41, %25
  br i1 %exitcond.not, label %._crit_edge, label %.lr.ph

._crit_edge:                                      ; preds = %39, %24
  %.not72 = icmp eq ptr %26, null
  br i1 %.not72, label %.thread79, label %42

42:                                               ; preds = %._crit_edge
  %43 = getelementptr inbounds i8, ptr %26, i64 28
  %44 = load i32, ptr %43, align 4
  %.not73 = icmp eq i32 %44, 0
  br i1 %.not73, label %.thread79, label %45

45:                                               ; preds = %42
  %46 = getelementptr inbounds i8, ptr %26, i64 16
  %47 = load ptr, ptr %46, align 8
  %48 = getelementptr inbounds i8, ptr %26, i64 24
  %49 = load i32, ptr %48, align 8
  %50 = zext i32 %49 to i64
  %51 = getelementptr inbounds %struct._Bucket, ptr %47, i64 %50
  %52 = getelementptr inbounds i8, ptr %26, i64 8
  %53 = load i32, ptr %52, align 8
  %54 = and i32 %53, 4
  %.not74 = icmp eq i32 %54, 0
  tail call void @llvm.assume(i1 %.not74)
  %.not7582 = icmp eq i32 %49, 0
  br i1 %.not7582, label %.thread79, label %.lr.ph85

.lr.ph85:                                         ; preds = %45, %79
  %.06383 = phi ptr [ %80, %79 ], [ %47, %45 ]
  %55 = getelementptr inbounds i8, ptr %.06383, i64 8
  %56 = load i8, ptr %55, align 8
  %57 = icmp eq i8 %56, 12
  br i1 %57, label %58, label %60

58:                                               ; preds = %.lr.ph85
  %59 = load ptr, ptr %.06383, align 8
  %.phi.trans.insert = getelementptr inbounds i8, ptr %59, i64 8
  %.pre = load i8, ptr %.phi.trans.insert, align 8
  br label %60

60:                                               ; preds = %58, %.lr.ph85
  %61 = phi i8 [ %.pre, %58 ], [ %56, %.lr.ph85 ]
  %.0 = phi ptr [ %59, %58 ], [ %.06383, %.lr.ph85 ]
  %62 = icmp eq i8 %61, 0
  br i1 %62, label %79, label %63

63:                                               ; preds = %60
  %64 = getelementptr inbounds i8, ptr %.06383, i64 16
  %65 = load i64, ptr %64, align 8
  %66 = getelementptr inbounds i8, ptr %.06383, i64 24
  %67 = load ptr, ptr %66, align 8
  %68 = getelementptr inbounds i8, ptr %.0, i64 9
  %69 = load i8, ptr %68, align 1
  %.not76 = icmp eq i8 %69, 0
  br i1 %.not76, label %74, label %70

70:                                               ; preds = %63
  %71 = load ptr, ptr %.0, align 8
  %72 = load i32, ptr %71, align 4
  %73 = add i32 %72, 1
  store i32 %73, ptr %71, align 4
  br label %74

74:                                               ; preds = %63, %70
  %.not77 = icmp eq ptr %67, null
  br i1 %.not77, label %77, label %75

75:                                               ; preds = %74
  %76 = tail call ptr @zend_hash_add_new(ptr noundef %30, ptr noundef nonnull %67, ptr noundef nonnull %.0) #12
  br label %79

77:                                               ; preds = %74
  %78 = tail call ptr @zend_hash_index_update(ptr noundef %30, i64 noundef %65, ptr noundef nonnull %.0) #12
  br label %79

79:                                               ; preds = %75, %77, %60
  %80 = getelementptr inbounds i8, ptr %.06383, i64 32
  %.not75 = icmp eq ptr %80, %51
  br i1 %.not75, label %.thread79, label %.lr.ph85

.thread79:                                        ; preds = %79, %45, %.thread, %._crit_edge, %42, %20, %21
  %.062 = phi ptr [ null, %21 ], [ null, %20 ], [ %30, %42 ], [ %30, %._crit_edge ], [ null, %.thread ], [ %30, %45 ], [ %30, %79 ]
  ret ptr %.062
}